target datalayout = "e-m:e-p270:32:32-p271:32:32-p272:64:64-i64:64-i128:128-f80:128-n8:16:32:64-S128"
target triple = "x86_64-pc-linux-gnu"

%class.svector = type { %class.vector.0 }
%class.vector.0 = type { ptr }
%"class.datalog::table_signature" = type <{ %"class.datalog::tr_infrastructure<datalog::table_traits>::signature_base", i32, [4 x i8] }>
%"class.datalog::tr_infrastructure<datalog::table_traits>::signature_base" = type { %class.svector }
%"class.datalog::tr_infrastructure<datalog::table_traits>::base_ancestor" = type <{ ptr, ptr, %"class.datalog::table_signature", i32, [4 x i8] }>
%"class.datalog::table_base::row_iterator" = type { %class.ref.168 }
%class.ref.168 = type { ptr }
%"class.datalog::table_base::row_interface::fact_row_iterator" = type <{ %"struct.datalog::table_base::row_iterator_core.base", [4 x i8], ptr, i32, [4 x i8] }>
%"struct.datalog::table_base::row_iterator_core.base" = type <{ ptr, i32 }>
%"class.datalog::table_base::row_interface" = type { ptr, ptr }
%"struct.datalog::table_base::row_iterator_core" = type <{ ptr, i32, [4 x i8] }>

; Function Attrs: mustprogress nounwind uwtable
define linkonce_odr hidden void @_ZN7datalog10table_base17row_iterator_core7inc_refEv(ptr noundef nonnull align 8 dereferenceable(12) %0) #6 comdat align 2 {
  %2 = alloca ptr, align 8
  store ptr %0, ptr %2, align 8, !tbaa !439
  %3 = load ptr, ptr %2, align 8
  %4 = getelementptr inbounds nuw %"struct.datalog::table_base::row_iterator_core", ptr %3, i32 0, i32 1
  %5 = load i32, ptr %4, align 8, !tbaa !501
  %6 = add i32 %5, 1
  store i32 %6, ptr %4, align 8, !tbaa !501
  ret void
}

; Function Attrs: mustprogress uwtable
define linkonce_odr hidden void @_ZN3refIN7datalog10table_base17row_iterator_coreEE7inc_refEv(ptr noundef nonnull align 8 dereferenceable(8) %0) #4 comdat align 2 {
  %2 = alloca ptr, align 8
  store ptr %0, ptr %2, align 8, !tbaa !503
  %3 = load ptr, ptr %2, align 8
  %4 = getelementptr inbounds nuw %class.ref.168, ptr %3, i32 0, i32 0
  %5 = load ptr, ptr %4, align 8, !tbaa !505
  %6 = icmp ne ptr %5, null
  br i1 %6, label %7, label %10

7:                                                ; preds = %1
  %8 = getelementptr inbounds nuw %class.ref.168, ptr %3, i32 0, i32 0
  %9 = load ptr, ptr %8, align 8, !tbaa !505
  call void @_ZN7datalog10table_base17row_iterator_core7inc_refEv(ptr noundef nonnull align 8 dereferenceable(12) %9)
  br label %10

10:                                               ; preds = %7, %1
  ret void
}

; Function Attrs: mustprogress nounwind uwtable
define linkonce_odr hidden noundef i32 @_ZNK6vectorImLb0EjE4sizeEv(ptr noundef nonnull align 8 dereferenceable(8) %0) #6 comdat align 2 {
  %2 = alloca i32, align 4
  %3 = alloca ptr, align 8
  store ptr %0, ptr %3, align 8, !tbaa !372
  %4 = load ptr, ptr %3, align 8
  %5 = getelementptr inbounds nuw %class.vector.0, ptr %4, i32 0, i32 0
  %6 = load ptr, ptr %5, align 8, !tbaa !374
  %7 = icmp eq ptr %6, null
  br i1 %7, label %8, label %9

8:                                                ; preds = %1
  store i32 0, ptr %2, align 4
  br label %14

9:                                                ; preds = %1
  %10 = getelementptr inbounds nuw %class.vector.0, ptr %4, i32 0, i32 0
  %11 = load ptr, ptr %10, align 8, !tbaa !374
  %12 = getelementptr inbounds i32, ptr %11, i64 -1
  %13 = load i32, ptr %12, align 4, !tbaa !29
  store i32 %13, ptr %2, align 4
  br label %14

14:                                               ; preds = %9, %8
  %15 = load i32, ptr %2, align 4
  ret i32 %15
}

; Function Attrs: mustprogress nounwind uwtable
define linkonce_odr hidden noundef nonnull align 8 dereferenceable(12) ptr @_ZNK7datalog17tr_infrastructureINS_12table_traitsEE13base_ancestor13get_signatureEv(ptr noundef nonnull align 8 dereferenceable(36) %0) #6 comdat align 2 {
  %2 = alloca ptr, align 8
  store ptr %0, ptr %2, align 8, !tbaa !408
  %3 = load ptr, ptr %2, align 8
  %4 = getelementptr inbounds nuw %"class.datalog::tr_infrastructure<datalog::table_traits>::base_ancestor", ptr %3, i32 0, i32 2
  ret ptr %4
}

; Function Attrs: mustprogress uwtable
define linkonce_odr hidden void @_ZN3refIN7datalog10table_base17row_iterator_coreEEC2EPS2_(ptr noundef nonnull align 8 dereferenceable(8) %0, ptr noundef %1) unnamed_addr #4 comdat align 2 {
  %3 = alloca ptr, align 8
  %4 = alloca ptr, align 8
  store ptr %0, ptr %3, align 8, !tbaa !503
  store ptr %1, ptr %4, align 8, !tbaa !439
  %5 = load ptr, ptr %3, align 8
  %6 = getelementptr inbounds nuw %class.ref.168, ptr %5, i32 0, i32 0
  %7 = load ptr, ptr %4, align 8, !tbaa !439
  store ptr %7, ptr %6, align 8, !tbaa !505
  call void @_ZN3refIN7datalog10table_base17row_iterator_coreEE7inc_refEv(ptr noundef nonnull align 8 dereferenceable(8) %5)
  ret void
}

; Function Attrs: mustprogress nounwind uwtable
define linkonce_odr hidden void @_ZN7datalog10table_base17row_iterator_coreD2Ev(ptr noundef nonnull align 8 dereferenceable(12) %0) unnamed_addr #6 comdat align 2 {
  %2 = alloca ptr, align 8
  store ptr %0, ptr %2, align 8, !tbaa !439
  ret void
}

; Function Attrs: mustprogress uwtable
define linkonce_odr hidden noundef i32 @_ZNK7datalog10table_base13row_interface4sizeEv(ptr noundef nonnull align 8 dereferenceable(16) %0) #4 comdat align 2 {
  %2 = alloca ptr, align 8
  store ptr %0, ptr %2, align 8, !tbaa !410
  %3 = load ptr, ptr %2, align 8
  %4 = getelementptr inbounds nuw %"class.datalog::table_base::row_interface", ptr %3, i32 0, i32 1
  %5 = load ptr, ptr %4, align 8, !tbaa !442
  %6 = call noundef nonnull align 8 dereferenceable(12) ptr @_ZNK7datalog17tr_infrastructureINS_12table_traitsEE13base_ancestor13get_signatureEv(ptr noundef nonnull align 8 dereferenceable(36) %5)
  %7 = call noundef i32 @_ZNK6vectorImLb0EjE4sizeEv(ptr noundef nonnull align 8 dereferenceable(8) %6)
  ret i32 %7
}

; Function Attrs: mustprogress nounwind uwtable
define linkonce_odr hidden void @_ZN7datalog10table_base17row_iterator_coreC2Ev(ptr noundef nonnull align 8 dereferenceable(12) %0) unnamed_addr #6 comdat align 2 {
  %2 = alloca ptr, align 8
  store ptr %0, ptr %2, align 8, !tbaa !439
  %3 = load ptr, ptr %2, align 8
  store ptr getelementptr inbounds inrange(-16, 48) ({ [8 x ptr] }, ptr @_ZTVN7datalog10table_base17row_iterator_coreE, i32 0, i32 0, i32 2), ptr %3, align 8, !tbaa !8
  %4 = getelementptr inbounds nuw %"struct.datalog::table_base::row_iterator_core", ptr %3, i32 0, i32 1
  store i32 0, ptr %4, align 8, !tbaa !501
  ret void
}

; Function Attrs: mustprogress uwtable
define linkonce_odr hidden void @_ZN7datalog10table_base12row_iteratorC2EPNS0_17row_iterator_coreE(ptr noundef nonnull align 8 dereferenceable(8) %0, ptr noundef %1) unnamed_addr #4 comdat align 2 {
  %3 = alloca ptr, align 8
  %4 = alloca ptr, align 8
  store ptr %0, ptr %3, align 8, !tbaa !437
  store ptr %1, ptr %4, align 8, !tbaa !439
  %5 = load ptr, ptr %3, align 8
  %6 = getelementptr inbounds nuw %"class.datalog::table_base::row_iterator", ptr %5, i32 0, i32 0
  %7 = load ptr, ptr %4, align 8, !tbaa !439
  call void @_ZN3refIN7datalog10table_base17row_iterator_coreEEC2EPS2_(ptr noundef nonnull align 8 dereferenceable(8) %6, ptr noundef %7)
  ret void
}

; Function Attrs: mustprogress uwtable
define linkonce_odr hidden void @_ZN7datalog10table_base13row_interface17fact_row_iteratorC2ERKS1_b(ptr noundef nonnull align 8 dereferenceable(28) %0, ptr noundef nonnull align 8 dereferenceable(16) %1, i1 noundef zeroext %2) unnamed_addr #4 comdat align 2 personality ptr @__gxx_personality_v0 {
  %4 = alloca ptr, align 8
  %5 = alloca ptr, align 8
  %6 = alloca i8, align 1
  %7 = alloca ptr, align 8
  %8 = alloca i32, align 4
  store ptr %0, ptr %4, align 8, !tbaa !432
  store ptr %1, ptr %5, align 8, !tbaa !410
  %9 = zext i1 %2 to i8
  store i8 %9, ptr %6, align 1, !tbaa !381
  %10 = load ptr, ptr %4, align 8
  call void @_ZN7datalog10table_base17row_iterator_coreC2Ev(ptr noundef nonnull align 8 dereferenceable(12) %10)
  store ptr getelementptr inbounds inrange(-16, 48) ({ [8 x ptr] }, ptr @_ZTVN7datalog10table_base13row_interface17fact_row_iteratorE, i32 0, i32 0, i32 2), ptr %10, align 8, !tbaa !8
  %11 = getelementptr inbounds nuw %"class.datalog::table_base::row_interface::fact_row_iterator", ptr %10, i32 0, i32 2
  %12 = load ptr, ptr %5, align 8, !tbaa !410
  store ptr %12, ptr %11, align 8, !tbaa !410
  %13 = getelementptr inbounds nuw %"class.datalog::table_base::row_interface::fact_row_iterator", ptr %10, i32 0, i32 3
  %14 = load i8, ptr %6, align 1, !tbaa !381, !range !386, !noundef !387
  %15 = trunc i8 %14 to i1
  br i1 %15, label %16, label %20

16:                                               ; preds = %3
  %17 = load ptr, ptr %5, align 8, !tbaa !410
  %18 = invoke noundef i32 @_ZNK7datalog10table_base13row_interface4sizeEv(ptr noundef nonnull align 8 dereferenceable(16) %17)
          to label %19 unwind label %23

19:                                               ; preds = %16
  br label %21

20:                                               ; preds = %3
  br label %21

21:                                               ; preds = %20, %19
  %22 = phi i32 [ %18, %19 ], [ 0, %20 ]
  store i32 %22, ptr %13, align 8, !tbaa !434
  ret void

23:                                               ; preds = %16
  %24 = landingpad { ptr, i32 }
          cleanup
  %25 = extractvalue { ptr, i32 } %24, 0
  store ptr %25, ptr %7, align 8
  %26 = extractvalue { ptr, i32 } %24, 1
  store i32 %26, ptr %8, align 4
  call void @_ZN7datalog10table_base17row_iterator_coreD2Ev(ptr noundef nonnull align 8 dereferenceable(12) %10) #3
  br label %27

27:                                               ; preds = %23
  %28 = load ptr, ptr %7, align 8
  %29 = load i32, ptr %8, align 4
  %30 = insertvalue { ptr, i32 } poison, ptr %28, 0
  %31 = insertvalue { ptr, i32 } %30, i32 %29, 1
  resume { ptr, i32 } %31
}

; Function Attrs: mustprogress uwtable
define hidden void @_ZNK7datalog10table_base13row_interface3endEv(ptr dead_on_unwind noalias writable sret(%"class.datalog::table_base::row_iterator") align 8 %0, ptr noundef nonnull align 8 dereferenceable(16) %1) unnamed_addr #4 align 2 {
  %3 = alloca ptr, align 8
  %4 = alloca ptr, align 8
  store ptr %0, ptr %3, align 8
  store ptr %1, ptr %4, align 8, !tbaa !410
  %5 = load ptr, ptr %4, align 8
  %6 = call noalias noundef ptr @_ZN6memory8allocateEm(i64 noundef 32)
  call void @_ZN7datalog10table_base13row_interface17fact_row_iteratorC2ERKS1_b(ptr noundef nonnull align 8 dereferenceable(28) %6, ptr noundef nonnull align 8 dereferenceable(16) %5, i1 noundef zeroext true)
  call void @_ZN7datalog10table_base12row_iteratorC2EPNS0_17row_iterator_coreE(ptr noundef nonnull align 8 dereferenceable(8) %0, ptr noundef %6)
  ret void
}