; Function Attrs: mustprogress uwtable
define hidden void @_ZNK7datalog10table_base13row_interface3endEv(ptr dead_on_unwind noalias writable writeonly sret(%"class.datalog::table_base::row_iterator") align 8 captures(none) initializes((0, 8)) %0, ptr noundef nonnull align 8 dereferenceable(16) %1) unnamed_addr #3 align 2 personality ptr @__gxx_personality_v0 {
  %3 = tail call noalias noundef ptr @_ZN6memory8allocateEm(i64 noundef 32)
  store ptr getelementptr inbounds nuw inrange(-16, 48) (i8, ptr @_ZTVN7datalog10table_base13row_interface17fact_row_iteratorE, i64 16), ptr %3, align 8, !tbaa !3
  %4 = getelementptr inbounds nuw i8, ptr %3, i64 16
  store ptr %1, ptr %4, align 8, !tbaa !389
  %5 = getelementptr inbounds nuw i8, ptr %1, i64 8
  %6 = load ptr, ptr %5, align 8, !tbaa !398
  %7 = getelementptr inbounds nuw i8, ptr %6, i64 16
  %8 = load ptr, ptr %7, align 8, !tbaa !328
  %9 = icmp eq ptr %8, null
  br i1 %9, label %_ZN7datalog10table_base12row_iteratorC2EPNS0_17row_iterator_coreE.exit, label %10

10:                                               ; preds = %2
  %11 = getelementptr inbounds i8, ptr %8, i64 -4
  %12 = load i32, ptr %11, align 4, !tbaa !12
  br label %_ZN7datalog10table_base12row_iteratorC2EPNS0_17row_iterator_coreE.exit

_ZN7datalog10table_base12row_iteratorC2EPNS0_17row_iterator_coreE.exit: ; preds = %2, %10
  %13 = phi i32 [ %12, %10 ], [ 0, %2 ]
  %14 = getelementptr inbounds nuw i8, ptr %3, i64 8
  %15 = getelementptr inbounds nuw i8, ptr %3, i64 24
  store i32 %13, ptr %15, align 8, !tbaa !391
  store ptr %3, ptr %0, align 8, !tbaa !394
  store i32 1, ptr %14, align 8, !tbaa !397
  ret void
}